target datalayout = "e-m:e-p270:32:32-p271:32:32-p272:64:64-i64:64-i128:128-f80:128-n8:16:32:64-S128"
target triple = "x86_64-pc-linux-gnu"

%struct.crypto_ex_data_func_st = type { i64, ptr, ptr, ptr }
%struct.CRYPTO_EX_DATA_CLASS = type { %struct.CRYPTO_STATIC_MUTEX, ptr, i8 }
%struct.CRYPTO_STATIC_MUTEX = type { %union.pthread_rwlock_t }
%union.pthread_rwlock_t = type { %struct.__pthread_rwlock_arch_t }
%struct.__pthread_rwlock_arch_t = type { i32, i32, i32, i32, i32, i32, i32, i32, i8, [7 x i8], i64, i32 }

@.str = private unnamed_addr constant [120 x i8] c"generated/home/dtcxzyw/WorkSpace/Projects/compilers/llvm-opt-benchmark/bench/libquic/libquic/boringssl/crypto/ex_data.c\00", align 1

; Function Attrs: nounwind uwtable
define hidden i32 @CRYPTO_get_ex_new_index(ptr noundef %0, ptr noundef %1, i64 noundef %2, ptr noundef %3, ptr noundef %4, ptr noundef %5) #0 {
  %7 = alloca i32, align 4
  %8 = alloca ptr, align 8
  %9 = alloca ptr, align 8
  %10 = alloca i64, align 8
  %11 = alloca ptr, align 8
  %12 = alloca ptr, align 8
  %13 = alloca ptr, align 8
  %14 = alloca ptr, align 8
  %15 = alloca i32, align 4
  %16 = alloca i32, align 4
  store ptr %0, ptr %8, align 8, !tbaa !6
  store ptr %1, ptr %9, align 8, !tbaa !10
  store i64 %2, ptr %10, align 8, !tbaa !12
  store ptr %3, ptr %11, align 8, !tbaa !6
  store ptr %4, ptr %12, align 8, !tbaa !6
  store ptr %5, ptr %13, align 8, !tbaa !6
  call void @llvm.lifetime.start.p0(i64 8, ptr %14) #5
  call void @llvm.lifetime.start.p0(i64 4, ptr %15) #5
  store i32 0, ptr %15, align 4, !tbaa !14
  %17 = call noalias ptr @malloc(i64 noundef 32) #6
  store ptr %17, ptr %14, align 8, !tbaa !16
  %18 = load ptr, ptr %14, align 8, !tbaa !16
  %19 = icmp eq ptr %18, null
  br i1 %19, label %20, label %21

20:                                               ; preds = %6
  call void @ERR_put_error(i32 noundef 14, i32 noundef 0, i32 noundef 65, ptr noundef @.str, i32 noundef 139)
  store i32 0, ptr %7, align 4
  store i32 1, ptr %16, align 4
  br label %75

21:                                               ; preds = %6
  %22 = load i64, ptr %10, align 8, !tbaa !12
  %23 = load ptr, ptr %14, align 8, !tbaa !16
  %24 = getelementptr inbounds nuw %struct.crypto_ex_data_func_st, ptr %23, i32 0, i32 0
  store i64 %22, ptr %24, align 8, !tbaa !18
  %25 = load ptr, ptr %11, align 8, !tbaa !6
  %26 = load ptr, ptr %14, align 8, !tbaa !16
  %27 = getelementptr inbounds nuw %struct.crypto_ex_data_func_st, ptr %26, i32 0, i32 1
  store ptr %25, ptr %27, align 8, !tbaa !20
  %28 = load ptr, ptr %12, align 8, !tbaa !6
  %29 = load ptr, ptr %14, align 8, !tbaa !16
  %30 = getelementptr inbounds nuw %struct.crypto_ex_data_func_st, ptr %29, i32 0, i32 3
  store ptr %28, ptr %30, align 8, !tbaa !21
  %31 = load ptr, ptr %13, align 8, !tbaa !6
  %32 = load ptr, ptr %14, align 8, !tbaa !16
  %33 = getelementptr inbounds nuw %struct.crypto_ex_data_func_st, ptr %32, i32 0, i32 2
  store ptr %31, ptr %33, align 8, !tbaa !22
  %34 = load ptr, ptr %8, align 8, !tbaa !6
  %35 = getelementptr inbounds nuw %struct.CRYPTO_EX_DATA_CLASS, ptr %34, i32 0, i32 0
  call void @CRYPTO_STATIC_MUTEX_lock_write(ptr noundef %35)
  %36 = load ptr, ptr %8, align 8, !tbaa !6
  %37 = getelementptr inbounds nuw %struct.CRYPTO_EX_DATA_CLASS, ptr %36, i32 0, i32 1
  %38 = load ptr, ptr %37, align 8, !tbaa !23
  %39 = icmp eq ptr %38, null
  br i1 %39, label %40, label %44

40:                                               ; preds = %21
  %41 = call ptr @sk_new_null()
  %42 = load ptr, ptr %8, align 8, !tbaa !6
  %43 = getelementptr inbounds nuw %struct.CRYPTO_EX_DATA_CLASS, ptr %42, i32 0, i32 1
  store ptr %41, ptr %43, align 8, !tbaa !23
  br label %44

44:                                               ; preds = %40, %21
  %45 = load ptr, ptr %8, align 8, !tbaa !6
  %46 = getelementptr inbounds nuw %struct.CRYPTO_EX_DATA_CLASS, ptr %45, i32 0, i32 1
  %47 = load ptr, ptr %46, align 8, !tbaa !23
  %48 = icmp eq ptr %47, null
  br i1 %48, label %56, label %49

49:                                               ; preds = %44
  %50 = load ptr, ptr %8, align 8, !tbaa !6
  %51 = getelementptr inbounds nuw %struct.CRYPTO_EX_DATA_CLASS, ptr %50, i32 0, i32 1
  %52 = load ptr, ptr %51, align 8, !tbaa !23
  %53 = load ptr, ptr %14, align 8, !tbaa !16
  %54 = call i64 @sk_push(ptr noundef %52, ptr noundef %53)
  %55 = icmp ne i64 %54, 0
  br i1 %55, label %58, label %56

56:                                               ; preds = %49, %44
  call void @ERR_put_error(i32 noundef 14, i32 noundef 0, i32 noundef 65, ptr noundef @.str, i32 noundef 156)
  %57 = load ptr, ptr %14, align 8, !tbaa !16
  call void @free(ptr noundef %57) #5
  br label %71

58:                                               ; preds = %49
  %59 = load ptr, ptr %8, align 8, !tbaa !6
  %60 = getelementptr inbounds nuw %struct.CRYPTO_EX_DATA_CLASS, ptr %59, i32 0, i32 1
  %61 = load ptr, ptr %60, align 8, !tbaa !23
  %62 = call i64 @sk_num(ptr noundef %61)
  %63 = sub i64 %62, 1
  %64 = load ptr, ptr %8, align 8, !tbaa !6
  %65 = getelementptr inbounds nuw %struct.CRYPTO_EX_DATA_CLASS, ptr %64, i32 0, i32 2
  %66 = load i8, ptr %65, align 8, !tbaa !27
  %67 = zext i8 %66 to i64
  %68 = add i64 %63, %67
  %69 = trunc i64 %68 to i32
  %70 = load ptr, ptr %9, align 8, !tbaa !10
  store i32 %69, ptr %70, align 4, !tbaa !14
  store i32 1, ptr %15, align 4, !tbaa !14
  br label %71

71:                                               ; preds = %58, %56
  %72 = load ptr, ptr %8, align 8, !tbaa !6
  %73 = getelementptr inbounds nuw %struct.CRYPTO_EX_DATA_CLASS, ptr %72, i32 0, i32 0
  call void @CRYPTO_STATIC_MUTEX_unlock(ptr noundef %73)
  %74 = load i32, ptr %15, align 4, !tbaa !14
  store i32 %74, ptr %7, align 4
  store i32 1, ptr %16, align 4
  br label %75

75:                                               ; preds = %71, %20
  call void @llvm.lifetime.end.p0(i64 4, ptr %15) #5
  call void @llvm.lifetime.end.p0(i64 8, ptr %14) #5
  %76 = load i32, ptr %7, align 4
  ret i32 %76
}