; Function Attrs: nounwind uwtable
define hidden range(i32 0, 2) i32 @CRYPTO_get_ex_new_index(ptr noundef %0, ptr noundef writeonly captures(none) %1, i64 noundef %2, ptr noundef %3, ptr noundef %4, ptr noundef %5) local_unnamed_addr #0 {
  %7 = tail call noalias dereferenceable_or_null(32) ptr @malloc(i64 noundef 32) #7
  %8 = icmp eq ptr %7, null
  br i1 %8, label %9, label %10

9:                                                ; preds = %6
  tail call void @ERR_put_error(i32 noundef 14, i32 noundef 0, i32 noundef 65, ptr noundef nonnull @.str, i32 noundef 139) #8
  br label %33

10:                                               ; preds = %6
  store i64 %2, ptr %7, align 8, !tbaa !6
  %11 = getelementptr inbounds nuw i8, ptr %7, i64 8
  store ptr %3, ptr %11, align 8, !tbaa !12
  %12 = getelementptr inbounds nuw i8, ptr %7, i64 24
  store ptr %4, ptr %12, align 8, !tbaa !13
  %13 = getelementptr inbounds nuw i8, ptr %7, i64 16
  store ptr %5, ptr %13, align 8, !tbaa !14
  tail call void @CRYPTO_STATIC_MUTEX_lock_write(ptr noundef %0) #8
  %14 = getelementptr inbounds nuw i8, ptr %0, i64 56
  %15 = load ptr, ptr %14, align 8, !tbaa !15
  %16 = icmp eq ptr %15, null
  br i1 %16, label %17, label %.thread

17:                                               ; preds = %10
  %18 = tail call ptr @sk_new_null() #8
  store ptr %18, ptr %14, align 8, !tbaa !15
  %19 = icmp eq ptr %18, null
  br i1 %19, label %22, label %.thread

.thread:                                          ; preds = %10, %17
  %20 = phi ptr [ %18, %17 ], [ %15, %10 ]
  %21 = tail call i64 @sk_push(ptr noundef nonnull %20, ptr noundef nonnull %7) #8
  %.not = icmp eq i64 %21, 0
  br i1 %.not, label %22, label %23

22:                                               ; preds = %.thread, %17
  tail call void @ERR_put_error(i32 noundef 14, i32 noundef 0, i32 noundef 65, ptr noundef nonnull @.str, i32 noundef 156) #8
  tail call void @free(ptr noundef nonnull %7) #8
  br label %32

23:                                               ; preds = %.thread
  %24 = load ptr, ptr %14, align 8, !tbaa !15
  %25 = tail call i64 @sk_num(ptr noundef %24) #8
  %26 = add i64 %25, 4294967295
  %27 = getelementptr inbounds nuw i8, ptr %0, i64 64
  %28 = load i8, ptr %27, align 8, !tbaa !19
  %29 = zext i8 %28 to i64
  %30 = add i64 %26, %29
  %31 = trunc i64 %30 to i32
  store i32 %31, ptr %1, align 4, !tbaa !20
  br label %32

32:                                               ; preds = %23, %22
  %.0 = phi i32 [ 0, %22 ], [ 1, %23 ]
  tail call void @CRYPTO_STATIC_MUTEX_unlock(ptr noundef nonnull %0) #8
  br label %33

33:                                               ; preds = %32, %9
  %.021 = phi i32 [ 0, %9 ], [ %.0, %32 ]
  ret i32 %.021
}